target datalayout = "e-m:e-p270:32:32-p271:32:32-p272:64:64-i64:64-i128:128-f80:128-n8:16:32:64-S128"
target triple = "x86_64-unknown-linux-gnu"

%struct.MachineState = type { %struct.Object, ptr, ptr, ptr, i32, ptr, i8, i8, i8, i8, ptr, i8, i8, i8, ptr, ptr, ptr, ptr, ptr, i64, i64, i64, %struct.BootConfiguration, ptr, ptr, ptr, ptr, ptr, ptr, %struct.CpuTopology, ptr, ptr }
%struct.Object = type { ptr, ptr, ptr, i32, ptr }
%struct.BootConfiguration = type { ptr, ptr, i8, i8, ptr, i8, i64, i8, i64, i8, i8 }
%struct.CpuTopology = type { i32, i32, i32, i32, i32, i32, i32, i32, i32 }
%struct.fdt_header = type { i32, i32, i32, i32, i32, i32, i32, i32, i32, i32 }
%struct._GError = type { i32, i32, ptr }

@.str.10 = private unnamed_addr constant [29 x i8] c"../qemu/system/device_tree.c\00", align 1
@current_machine = external global ptr, align 8
@__func__.qmp_dumpdtb = private unnamed_addr constant [12 x i8] c"qmp_dumpdtb\00", align 1
@.str.25 = private unnamed_addr constant [32 x i8] c"This machine doesn't have a FDT\00", align 1
@.str.26 = private unnamed_addr constant [9 x i8] c"size > 0\00", align 1
@.str.27 = private unnamed_addr constant [32 x i8] c"Error saving FDT to file %s: %s\00", align 1

; Function Attrs: nounwind sspstrong uwtable
define internal void @glib_autoptr_clear_GError(ptr noundef %_ptr) #0 {
entry:
  %_ptr.addr = alloca ptr, align 8
  store ptr %_ptr, ptr %_ptr.addr, align 8
  %0 = load ptr, ptr %_ptr.addr, align 8
  %tobool = icmp ne ptr %0, null
  br i1 %tobool, label %if.then, label %if.end

if.then:                                          ; preds = %entry
  %1 = load ptr, ptr %_ptr.addr, align 8
  call void @g_error_free(ptr noundef %1)
  br label %if.end

if.end:                                           ; preds = %if.then, %entry
  ret void
}

; Function Attrs: nounwind sspstrong uwtable
define internal void @glib_autoptr_cleanup_GError(ptr noundef %_ptr) #0 {
entry:
  %_ptr.addr = alloca ptr, align 8
  store ptr %_ptr, ptr %_ptr.addr, align 8
  %0 = load ptr, ptr %_ptr.addr, align 8
  %1 = load ptr, ptr %0, align 8
  call void @glib_autoptr_clear_GError(ptr noundef %1)
  ret void
}

; Function Attrs: nounwind sspstrong uwtable
define internal i32 @fdt32_ld(ptr noundef %p) #0 {
entry:
  %p.addr = alloca ptr, align 8
  %bp = alloca ptr, align 8
  store ptr %p, ptr %p.addr, align 8
  %0 = load ptr, ptr %p.addr, align 8
  store ptr %0, ptr %bp, align 8
  %1 = load ptr, ptr %bp, align 8
  %arrayidx = getelementptr i8, ptr %1, i64 0
  %2 = load i8, ptr %arrayidx, align 1
  %conv = zext i8 %2 to i32
  %shl = shl i32 %conv, 24
  %3 = load ptr, ptr %bp, align 8
  %arrayidx1 = getelementptr i8, ptr %3, i64 1
  %4 = load i8, ptr %arrayidx1, align 1
  %conv2 = zext i8 %4 to i32
  %shl3 = shl i32 %conv2, 16
  %or = or i32 %shl, %shl3
  %5 = load ptr, ptr %bp, align 8
  %arrayidx4 = getelementptr i8, ptr %5, i64 2
  %6 = load i8, ptr %arrayidx4, align 1
  %conv5 = zext i8 %6 to i32
  %shl6 = shl i32 %conv5, 8
  %or7 = or i32 %or, %shl6
  %7 = load ptr, ptr %bp, align 8
  %arrayidx8 = getelementptr i8, ptr %7, i64 3
  %8 = load i8, ptr %arrayidx8, align 1
  %conv9 = zext i8 %8 to i32
  %or10 = or i32 %or7, %conv9
  ret i32 %or10
}

; Function Attrs: nounwind sspstrong uwtable
define dso_local void @qmp_dumpdtb(ptr noundef %filename, ptr noundef %errp) #0 {
entry:
  %filename.addr = alloca ptr, align 8
  %errp.addr = alloca ptr, align 8
  %err = alloca ptr, align 8
  %size = alloca i32, align 4
  %cleanup.dest.slot = alloca i32, align 4
  store ptr %filename, ptr %filename.addr, align 8
  store ptr %errp, ptr %errp.addr, align 8
  store ptr null, ptr %err, align 8
  %0 = load ptr, ptr @current_machine, align 8
  %fdt = getelementptr inbounds %struct.MachineState, ptr %0, i32 0, i32 1
  %1 = load ptr, ptr %fdt, align 8
  %tobool = icmp ne ptr %1, null
  br i1 %tobool, label %if.end, label %if.then

if.then:                                          ; preds = %entry
  %2 = load ptr, ptr %errp.addr, align 8
  call void (ptr, ptr, i32, ptr, ptr, ...) @error_setg_internal(ptr noundef %2, ptr noundef @.str.10, i32 noundef 657, ptr noundef @__func__.qmp_dumpdtb, ptr noundef @.str.25)
  store i32 1, ptr %cleanup.dest.slot, align 4
  br label %cleanup

if.end:                                           ; preds = %entry
  %3 = load ptr, ptr @current_machine, align 8
  %fdt1 = getelementptr inbounds %struct.MachineState, ptr %3, i32 0, i32 1
  %4 = load ptr, ptr %fdt1, align 8
  %totalsize = getelementptr inbounds %struct.fdt_header, ptr %4, i32 0, i32 1
  %call = call i32 @fdt32_ld(ptr noundef %totalsize)
  store i32 %call, ptr %size, align 4
  br label %do.body

do.body:                                          ; preds = %if.end
  %5 = load i32, ptr %size, align 4
  %cmp = icmp ugt i32 %5, 0
  br i1 %cmp, label %if.then2, label %if.else

if.then2:                                         ; preds = %do.body
  br label %if.end3

if.else:                                          ; preds = %do.body
  call void @g_assertion_message_expr(ptr noundef null, ptr noundef @.str.10, i32 noundef 663, ptr noundef @__func__.qmp_dumpdtb, ptr noundef @.str.26) #14
  unreachable

if.end3:                                          ; preds = %if.then2
  br label %do.cond

do.cond:                                          ; preds = %if.end3
  br label %do.end

do.end:                                           ; preds = %do.cond
  %6 = load ptr, ptr %filename.addr, align 8
  %7 = load ptr, ptr @current_machine, align 8
  %fdt4 = getelementptr inbounds %struct.MachineState, ptr %7, i32 0, i32 1
  %8 = load ptr, ptr %fdt4, align 8
  %9 = load i32, ptr %size, align 4
  %conv = zext i32 %9 to i64
  %call5 = call i32 @g_file_set_contents(ptr noundef %6, ptr noundef %8, i64 noundef %conv, ptr noundef %err)
  %tobool6 = icmp ne i32 %call5, 0
  br i1 %tobool6, label %if.end8, label %if.then7

if.then7:                                         ; preds = %do.end
  %10 = load ptr, ptr %errp.addr, align 8
  %11 = load ptr, ptr %filename.addr, align 8
  %12 = load ptr, ptr %err, align 8
  %message = getelementptr inbounds %struct._GError, ptr %12, i32 0, i32 2
  %13 = load ptr, ptr %message, align 8
  call void (ptr, ptr, i32, ptr, ptr, ...) @error_setg_internal(ptr noundef %10, ptr noundef @.str.10, i32 noundef 667, ptr noundef @__func__.qmp_dumpdtb, ptr noundef @.str.27, ptr noundef %11, ptr noundef %13)
  br label %if.end8

if.end8:                                          ; preds = %if.then7, %do.end
  store i32 0, ptr %cleanup.dest.slot, align 4
  br label %cleanup

cleanup:                                          ; preds = %if.end8, %if.then
  call void @glib_autoptr_cleanup_GError(ptr noundef %err)
  %cleanup.dest = load i32, ptr %cleanup.dest.slot, align 4
  switch i32 %cleanup.dest, label %unreachable [
    i32 0, label %cleanup.cont
    i32 1, label %cleanup.cont
  ]

cleanup.cont:                                     ; preds = %cleanup, %cleanup
  ret void

unreachable:                                      ; preds = %cleanup
  unreachable
}