; Function Attrs: nounwind sspstrong uwtable
define dso_local void @qmp_dumpdtb(ptr noundef %filename, ptr noundef %errp) local_unnamed_addr #0 {
entry:
  %err = alloca ptr, align 8
  store ptr null, ptr %err, align 8
  %0 = load ptr, ptr @current_machine, align 8
  %fdt = getelementptr inbounds nuw i8, ptr %0, i64 40
  %1 = load ptr, ptr %fdt, align 8
  %tobool.not = icmp eq ptr %1, null
  br i1 %tobool.not, label %cleanup.thread, label %if.end

cleanup.thread:                                   ; preds = %entry
  tail call void (ptr, ptr, i32, ptr, ptr, ...) @error_setg_internal(ptr noundef %errp, ptr noundef nonnull @.str.10, i32 noundef 657, ptr noundef nonnull @__func__.qmp_dumpdtb, ptr noundef nonnull @.str.25) #12
  br label %glib_autoptr_cleanup_GError.exit

if.end:                                           ; preds = %entry
  %totalsize = getelementptr inbounds nuw i8, ptr %1, i64 4
  %2 = load i8, ptr %totalsize, align 1
  %conv.i = zext i8 %2 to i32
  %shl.i = shl nuw i32 %conv.i, 24
  %arrayidx1.i = getelementptr i8, ptr %1, i64 5
  %3 = load i8, ptr %arrayidx1.i, align 1
  %conv2.i = zext i8 %3 to i32
  %shl3.i = shl nuw nsw i32 %conv2.i, 16
  %or.i = or disjoint i32 %shl3.i, %shl.i
  %arrayidx4.i = getelementptr i8, ptr %1, i64 6
  %4 = load i8, ptr %arrayidx4.i, align 1
  %conv5.i = zext i8 %4 to i32
  %shl6.i = shl nuw nsw i32 %conv5.i, 8
  %or7.i = or disjoint i32 %or.i, %shl6.i
  %arrayidx8.i = getelementptr i8, ptr %1, i64 7
  %5 = load i8, ptr %arrayidx8.i, align 1
  %conv9.i = zext i8 %5 to i32
  %or10.i = or disjoint i32 %or7.i, %conv9.i
  %cmp.not = icmp eq i32 %or10.i, 0
  br i1 %cmp.not, label %if.else, label %do.end

if.else:                                          ; preds = %if.end
  tail call void @g_assertion_message_expr(ptr noundef null, ptr noundef nonnull @.str.10, i32 noundef 663, ptr noundef nonnull @__func__.qmp_dumpdtb, ptr noundef nonnull @.str.26) #16
  unreachable

do.end:                                           ; preds = %if.end
  %conv = zext i32 %or10.i to i64
  %call5 = call i32 @g_file_set_contents(ptr noundef %filename, ptr noundef nonnull %1, i64 noundef %conv, ptr noundef nonnull %err) #12
  %tobool6.not = icmp eq i32 %call5, 0
  %err.val.pre4 = load ptr, ptr %err, align 8
  br i1 %tobool6.not, label %if.then7, label %cleanup

if.then7:                                         ; preds = %do.end
  %message = getelementptr inbounds nuw i8, ptr %err.val.pre4, i64 8
  %6 = load ptr, ptr %message, align 8
  call void (ptr, ptr, i32, ptr, ptr, ...) @error_setg_internal(ptr noundef %errp, ptr noundef nonnull @.str.10, i32 noundef 667, ptr noundef nonnull @__func__.qmp_dumpdtb, ptr noundef nonnull @.str.27, ptr noundef %filename, ptr noundef %6) #12
  %err.val.pre = load ptr, ptr %err, align 8
  br label %cleanup

cleanup:                                          ; preds = %do.end, %if.then7
  %err.val = phi ptr [ %err.val.pre4, %do.end ], [ %err.val.pre, %if.then7 ]
  %tobool.not.i.i = icmp eq ptr %err.val, null
  br i1 %tobool.not.i.i, label %glib_autoptr_cleanup_GError.exit, label %if.then.i.i

if.then.i.i:                                      ; preds = %cleanup
  call void @g_error_free(ptr noundef nonnull %err.val) #12
  br label %glib_autoptr_cleanup_GError.exit

glib_autoptr_cleanup_GError.exit:                 ; preds = %cleanup.thread, %cleanup, %if.then.i.i
  ret void
}